target datalayout = "e-m:e-p270:32:32-p271:32:32-p272:64:64-i64:64-i128:128-f80:128-n8:16:32:64-S128"
target triple = "x86_64-pc-linux-gnu"

%struct.lua_TValue = type { %union.Value, [1 x i32], i32 }
%union.Value = type { ptr }
%struct.LuaTable = type { i8, i8, i8, i8, i8, i8, i8, i8, i32, %union.anon.2, ptr, ptr, ptr, ptr }
%union.anon.2 = type { i32 }
%struct.TString = type { i8, i8, i8, i16, ptr, i32, i32, [1 x i8] }

@.str.19 = private unnamed_addr constant [53 x i8] c"invalid value (%s) at index %d in table for 'concat'\00", align 1

; Function Attrs: mustprogress uwtable
define internal void @_ZL8addfieldP9lua_StateP11luaL_StrbufiP8LuaTable(ptr noundef %0, ptr noundef %1, i32 noundef %2, ptr noundef %3) #0 {
  %5 = alloca ptr, align 8
  %6 = alloca ptr, align 8
  %7 = alloca i32, align 4
  %8 = alloca ptr, align 8
  %9 = alloca ptr, align 8
  %10 = alloca i32, align 4
  store ptr %0, ptr %5, align 8, !tbaa !4
  store ptr %1, ptr %6, align 8, !tbaa !58
  store i32 %2, ptr %7, align 4, !tbaa !23
  store ptr %3, ptr %8, align 8, !tbaa !22
  %11 = load ptr, ptr %8, align 8, !tbaa !22
  %12 = icmp ne ptr %11, null
  br i1 %12, label %13, label %49

13:                                               ; preds = %4
  %14 = load i32, ptr %7, align 4, !tbaa !23
  %15 = sub nsw i32 %14, 1
  %16 = load ptr, ptr %8, align 8, !tbaa !22
  %17 = getelementptr inbounds nuw %struct.LuaTable, ptr %16, i32 0, i32 8
  %18 = load i32, ptr %17, align 8, !tbaa !24
  %19 = icmp ult i32 %15, %18
  br i1 %19, label %20, label %49

20:                                               ; preds = %13
  %21 = load ptr, ptr %8, align 8, !tbaa !22
  %22 = getelementptr inbounds nuw %struct.LuaTable, ptr %21, i32 0, i32 11
  %23 = load ptr, ptr %22, align 8, !tbaa !27
  %24 = load i32, ptr %7, align 4, !tbaa !23
  %25 = sub nsw i32 %24, 1
  %26 = sext i32 %25 to i64
  %27 = getelementptr inbounds %struct.lua_TValue, ptr %23, i64 %26
  %28 = getelementptr inbounds nuw %struct.lua_TValue, ptr %27, i32 0, i32 2
  %29 = load i32, ptr %28, align 4, !tbaa !43
  %30 = icmp eq i32 %29, 5
  br i1 %30, label %31, label %49

31:                                               ; preds = %20
  call void @llvm.lifetime.start.p0(i64 8, ptr %9) #7
  %32 = load ptr, ptr %8, align 8, !tbaa !22
  %33 = getelementptr inbounds nuw %struct.LuaTable, ptr %32, i32 0, i32 11
  %34 = load ptr, ptr %33, align 8, !tbaa !27
  %35 = load i32, ptr %7, align 4, !tbaa !23
  %36 = sub nsw i32 %35, 1
  %37 = sext i32 %36 to i64
  %38 = getelementptr inbounds %struct.lua_TValue, ptr %34, i64 %37
  %39 = getelementptr inbounds nuw %struct.lua_TValue, ptr %38, i32 0, i32 0
  %40 = load ptr, ptr %39, align 8, !tbaa !21
  store ptr %40, ptr %9, align 8, !tbaa !60
  %41 = load ptr, ptr %6, align 8, !tbaa !58
  %42 = load ptr, ptr %9, align 8, !tbaa !60
  %43 = getelementptr inbounds nuw %struct.TString, ptr %42, i32 0, i32 7
  %44 = getelementptr inbounds [1 x i8], ptr %43, i64 0, i64 0
  %45 = load ptr, ptr %9, align 8, !tbaa !60
  %46 = getelementptr inbounds nuw %struct.TString, ptr %45, i32 0, i32 6
  %47 = load i32, ptr %46, align 4, !tbaa !61
  %48 = zext i32 %47 to i64
  call void @_Z15luaL_addlstringP11luaL_StrbufPKcm(ptr noundef %41, ptr noundef %44, i64 noundef %48)
  call void @llvm.lifetime.end.p0(i64 8, ptr %9) #7
  br label %65

49:                                               ; preds = %20, %13, %4
  call void @llvm.lifetime.start.p0(i64 4, ptr %10) #7
  %50 = load ptr, ptr %5, align 8, !tbaa !4
  %51 = load i32, ptr %7, align 4, !tbaa !23
  %52 = call noundef i32 @_Z11lua_rawgetiP9lua_Stateii(ptr noundef %50, i32 noundef 1, i32 noundef %51)
  store i32 %52, ptr %10, align 4, !tbaa !23
  %53 = load i32, ptr %10, align 4, !tbaa !23
  %54 = icmp ne i32 %53, 5
  br i1 %54, label %55, label %63

55:                                               ; preds = %49
  %56 = load i32, ptr %10, align 4, !tbaa !23
  %57 = icmp ne i32 %56, 3
  br i1 %57, label %58, label %63

58:                                               ; preds = %55
  %59 = load ptr, ptr %5, align 8, !tbaa !4
  %60 = load ptr, ptr %5, align 8, !tbaa !4
  %61 = call noundef ptr @_Z13luaL_typenameP9lua_Statei(ptr noundef %60, i32 noundef -1)
  %62 = load i32, ptr %7, align 4, !tbaa !23
  call void (ptr, ptr, ...) @_Z11luaL_errorLP9lua_StatePKcz(ptr noundef %59, ptr noundef @.str.19, ptr noundef %61, i32 noundef %62) #8
  unreachable

63:                                               ; preds = %55, %49
  %64 = load ptr, ptr %6, align 8, !tbaa !58
  call void @_Z13luaL_addvalueP11luaL_Strbuf(ptr noundef %64)
  call void @llvm.lifetime.end.p0(i64 4, ptr %10) #7
  br label %65

65:                                               ; preds = %63, %31
  ret void
}