; Function Attrs: mustprogress uwtable
define internal fastcc void @_ZL8addfieldP9lua_StateP11luaL_StrbufiP8LuaTable(ptr noundef %0, ptr noundef nonnull %1, i32 noundef %2, ptr noundef readonly %3) unnamed_addr #0 {
  %.not = icmp eq ptr %3, null
  br i1 %.not, label %24, label %5

5:                                                ; preds = %4
  %6 = add nsw i32 %2, -1
  %7 = getelementptr inbounds nuw i8, ptr %3, i64 8
  %8 = load i32, ptr %7, align 8, !tbaa !20
  %9 = icmp ult i32 %6, %8
  br i1 %9, label %10, label %24

10:                                               ; preds = %5
  %11 = getelementptr inbounds nuw i8, ptr %3, i64 24
  %12 = load ptr, ptr %11, align 8, !tbaa !23
  %13 = sext i32 %6 to i64
  %14 = getelementptr inbounds %struct.lua_TValue, ptr %12, i64 %13
  %15 = getelementptr inbounds nuw i8, ptr %14, i64 12
  %16 = load i32, ptr %15, align 4, !tbaa !37
  %17 = icmp eq i32 %16, 5
  br i1 %17, label %18, label %24

18:                                               ; preds = %10
  %19 = load ptr, ptr %14, align 8, !tbaa !19
  %20 = getelementptr inbounds nuw i8, ptr %19, i64 24
  %21 = getelementptr inbounds nuw i8, ptr %19, i64 20
  %22 = load i32, ptr %21, align 4, !tbaa !48
  %23 = zext i32 %22 to i64
  tail call void @_Z15luaL_addlstringP11luaL_StrbufPKcm(ptr noundef nonnull %1, ptr noundef nonnull %20, i64 noundef %23)
  br label %29

24:                                               ; preds = %10, %5, %4
  %25 = tail call noundef i32 @_Z11lua_rawgetiP9lua_Stateii(ptr noundef %0, i32 noundef 1, i32 noundef %2)
  switch i32 %25, label %26 [
    i32 5, label %28
    i32 3, label %28
  ]

26:                                               ; preds = %24
  %27 = tail call noundef ptr @_Z13luaL_typenameP9lua_Statei(ptr noundef %0, i32 noundef -1)
  tail call void (ptr, ptr, ...) @_Z11luaL_errorLP9lua_StatePKcz(ptr noundef %0, ptr noundef nonnull @.str.19, ptr noundef %27, i32 noundef %2) #6
  unreachable

28:                                               ; preds = %24, %24
  tail call void @_Z13luaL_addvalueP11luaL_Strbuf(ptr noundef nonnull %1)
  br label %29

29:                                               ; preds = %28, %18
  ret void
}